;--------------------------------------------------------
; File Created by SDCC : free open source ISO C Compiler 
; Version 4.4.1 #14650 (MINGW64)
;--------------------------------------------------------
	.module bitfalls
	.optsdcc -msm83
	
;--------------------------------------------------------
; Public variables in this module
;--------------------------------------------------------
	.globl _play_shooting_sound
	.globl _main
	.globl _set_sprite_data
	.globl _set_bkg_tiles
	.globl _set_bkg_data
	.globl _wait_vbl_done
	.globl _waitpad
	.globl _joypad
	.globl _printf
	.globl _ProjectileSprite
	.globl _AlienSprite
	.globl _ShipSprite
	.globl _star
	.globl _apple
	.globl _banana
	.globl _spike
	.globl _basket_player
	.globl _scrTitle_map
	.globl _scrTitle_data
	.globl _performant_delay
	.globl _setup_sound
	.globl _play_button_sound
	.globl _play_moving_sound
	.globl _play_death_sound
	.globl _setup_player
	.globl _setup_bananas
	.globl _setup_game_character
	.globl _is_player_within_bounds
	.globl _has_collision_happened
	.globl _move_character
	.globl _game_over
;--------------------------------------------------------
; special function registers
;--------------------------------------------------------
;--------------------------------------------------------
; ram data
;--------------------------------------------------------
	.area _DATA
_basket_player::
	.ds 5
_spike::
	.ds 10
_banana::
	.ds 15
_apple::
	.ds 10
_star::
	.ds 5
;--------------------------------------------------------
; ram data
;--------------------------------------------------------
	.area _INITIALIZED
_ShipSprite::
	.ds 16
_AlienSprite::
	.ds 32
_ProjectileSprite::
	.ds 16
;--------------------------------------------------------
; absolute external ram data
;--------------------------------------------------------
	.area _DABS (ABS)
;--------------------------------------------------------
; global & static initialisations
;--------------------------------------------------------
	.area _HOME
	.area _GSINIT
	.area _GSFINAL
	.area _GSINIT
;--------------------------------------------------------
; Home
;--------------------------------------------------------
	.area _HOME
	.area _HOME
;--------------------------------------------------------
; code
;--------------------------------------------------------
	.area _CODE
;bitfalls.c:35: void main() {
;	---------------------------------
; Function main
; ---------------------------------
_main::
;bitfalls.c:39: DISPLAY_ON;
	ldh	a, (_LCDC_REG + 0)
	or	a, #0x80
	ldh	(_LCDC_REG + 0), a
;bitfalls.c:40: setup_sound();
	call	_setup_sound
;bitfalls.c:42: set_bkg_data(0, 156, scrTitle_data);
	ld	de, #_scrTitle_data
	push	de
	ld	hl, #0x9c00
	push	hl
	call	_set_bkg_data
	add	sp, #4
;bitfalls.c:43: set_bkg_tiles(0, 0, 20, 18, scrTitle_map);
	ld	de, #_scrTitle_map
	push	de
	ld	hl, #0x1214
	push	hl
	xor	a, a
	rrca
	push	af
	call	_set_bkg_tiles
	add	sp, #6
;bitfalls.c:45: SHOW_BKG;
	ldh	a, (_LCDC_REG + 0)
	or	a, #0x01
	ldh	(_LCDC_REG + 0), a
;bitfalls.c:46: waitpad(J_START);
	ld	a, #0x80
	call	_waitpad
;bitfalls.c:47: play_button_sound();
	call	_play_button_sound
;bitfalls.c:48: HIDE_BKG;
	ldh	a, (_LCDC_REG + 0)
	and	a, #0xfe
	ldh	(_LCDC_REG + 0), a
;bitfalls.c:50: SHOW_SPRITES;
	ldh	a, (_LCDC_REG + 0)
	or	a, #0x02
	ldh	(_LCDC_REG + 0), a
;bitfalls.c:51: set_sprite_data(0, 0, ShipSprite);
	ld	de, #_ShipSprite
	push	de
	xor	a, a
	rrca
	push	af
	call	_set_sprite_data
	add	sp, #4
;bitfalls.c:52: set_sprite_data(1, 0, ProjectileSprite);
	ld	de, #_ProjectileSprite
	push	de
	ld	hl, #0x01
	push	hl
	call	_set_sprite_data
	add	sp, #4
;bitfalls.c:53: set_sprite_data(2, 2, AlienSprite);
	ld	de, #_AlienSprite
	push	de
	ld	hl, #0x202
	push	hl
	call	_set_sprite_data
	add	sp, #4
;bitfalls.c:55: setup_player();
	call	_setup_player
;bitfalls.c:56: setup_bananas(3);
	ld	a, #0x03
	call	_setup_bananas
;bitfalls.c:58: while (1) {
00112$:
;bitfalls.c:59: if (joypad() & J_LEFT) {
	call	_joypad
	bit	1, a
	jr	Z, 00105$
;bitfalls.c:60: basket_player.x -= 4;
	ld	hl, #_basket_player + 1
	ld	a, (hl)
	add	a, #0xfc
	ld	(hl), a
;bitfalls.c:61: if (is_player_within_bounds(&basket_player) == 0) {
	push	hl
	ld	de, #_basket_player
	call	_is_player_within_bounds
	pop	hl
;bitfalls.c:60: basket_player.x -= 4;
	ld	c, (hl)
;bitfalls.c:61: if (is_player_within_bounds(&basket_player) == 0) {
	or	a, a
	jr	NZ, 00102$
;bitfalls.c:62: move_character(&basket_player, basket_player.x, basket_player.y);
	ld	a, (#(_basket_player + 2) + 0)
	push	af
	inc	sp
	ld	a, c
	ld	de, #_basket_player
	call	_move_character
	jr	00105$
00102$:
;bitfalls.c:63: } else basket_player.x += 4;
	ld	a, c
	add	a, #0x04
	ld	(hl), a
00105$:
;bitfalls.c:65: if (joypad() & J_RIGHT) {
	call	_joypad
	rrca
	jr	NC, 00110$
;bitfalls.c:66: basket_player.x += 4;
	ld	hl, #_basket_player + 1
	ld	a, (hl)
	add	a, #0x04
	ld	(hl), a
;bitfalls.c:67: if (is_player_within_bounds(&basket_player) == 0) {
	push	hl
	ld	de, #_basket_player
	call	_is_player_within_bounds
	pop	hl
;bitfalls.c:66: basket_player.x += 4;
	ld	c, (hl)
;bitfalls.c:67: if (is_player_within_bounds(&basket_player) == 0) {
	or	a, a
	jr	NZ, 00107$
;bitfalls.c:68: move_character(&basket_player, basket_player.x, basket_player.y);
	ld	a, (#(_basket_player + 2) + 0)
	push	af
	inc	sp
	ld	a, c
	ld	de, #_basket_player
	call	_move_character
	jr	00110$
00107$:
;bitfalls.c:69: } else basket_player.x -= 4;
	ld	a, c
	add	a, #0xfc
	ld	(hl), a
00110$:
;bitfalls.c:74: performant_delay(5); //10
	ld	a, #0x05
	call	_performant_delay
;bitfalls.c:76: tick_count++;
;bitfalls.c:78: }
	jr	00112$
_scrTitle_data:
	.db #0xff	; 255
	.db #0x00	; 0
	.db #0xff	; 255
	.db #0x00	; 0
	.db #0xff	; 255
	.db #0x00	; 0
	.db #0xff	; 255
	.db #0x00	; 0
	.db #0xff	; 255
	.db #0x00	; 0
	.db #0xff	; 255
	.db #0x00	; 0
	.db #0xff	; 255
	.db #0x00	; 0
	.db #0xff	; 255
	.db #0x00	; 0
	.db #0xff	; 255
	.db #0x00	; 0
	.db #0xff	; 255
	.db #0x00	; 0
	.db #0xff	; 255
	.db #0x00	; 0
	.db #0xff	; 255
	.db #0x00	; 0
	.db #0xff	; 255
	.db #0x00	; 0
	.db #0xff	; 255
	.db #0x00	; 0
	.db #0xff	; 255
	.db #0x00	; 0
	.db #0xff	; 255
	.db #0x0f	; 15
	.db #0xff	; 255
	.db #0x00	; 0
	.db #0xff	; 255
	.db #0x00	; 0
	.db #0xff	; 255
	.db #0x00	; 0
	.db #0xff	; 255
	.db #0x00	; 0
	.db #0xff	; 255
	.db #0x00	; 0
	.db #0xff	; 255
	.db #0x00	; 0
	.db #0xff	; 255
	.db #0x00	; 0
	.db #0xff	; 255
	.db #0xfe	; 254
	.db #0xff	; 255
	.db #0x00	; 0
	.db #0xff	; 255
	.db #0x00	; 0
	.db #0xff	; 255
	.db #0x00	; 0
	.db #0xff	; 255
	.db #0x00	; 0
	.db #0xff	; 255
	.db #0x00	; 0
	.db #0xff	; 255
	.db #0x00	; 0
	.db #0xff	; 255
	.db #0x00	; 0
	.db #0xff	; 255
	.db #0xff	; 255
	.db #0xff	; 255
	.db #0x00	; 0
	.db #0xff	; 255
	.db #0x00	; 0
	.db #0xff	; 255
	.db #0x00	; 0
	.db #0xff	; 255
	.db #0x00	; 0
	.db #0xff	; 255
	.db #0x00	; 0
	.db #0xff	; 255
	.db #0x00	; 0
	.db #0xff	; 255
	.db #0x00	; 0
	.db #0xff	; 255
	.db #0x80	; 128
	.db #0xff	; 255
	.db #0x00	; 0
	.db #0xff	; 255
	.db #0x00	; 0
	.db #0xff	; 255
	.db #0x00	; 0
	.db #0xff	; 255
	.db #0x00	; 0
	.db #0xff	; 255
	.db #0x00	; 0
	.db #0xff	; 255
	.db #0x00	; 0
	.db #0xff	; 255
	.db #0x00	; 0
	.db #0xff	; 255
	.db #0x7f	; 127
	.db #0xff	; 255
	.db #0x00	; 0
	.db #0xff	; 255
	.db #0x00	; 0
	.db #0xff	; 255
	.db #0x00	; 0
	.db #0xff	; 255
	.db #0x00	; 0
	.db #0xff	; 255
	.db #0x00	; 0
	.db #0xff	; 255
	.db #0x00	; 0
	.db #0xff	; 255
	.db #0x00	; 0
	.db #0xff	; 255
	.db #0xe0	; 224
	.db #0xff	; 255
	.db #0x00	; 0
	.db #0xff	; 255
	.db #0x00	; 0
	.db #0xff	; 255
	.db #0x00	; 0
	.db #0xff	; 255
	.db #0x00	; 0
	.db #0xff	; 255
	.db #0x00	; 0
	.db #0xff	; 255
	.db #0x00	; 0
	.db #0xff	; 255
	.db #0x00	; 0
	.db #0xff	; 255
	.db #0x07	; 7
	.db #0xff	; 255
	.db #0x00	; 0
	.db #0xff	; 255
	.db #0x00	; 0
	.db #0xff	; 255
	.db #0x00	; 0
	.db #0xff	; 255
	.db #0x00	; 0
	.db #0xff	; 255
	.db #0x00	; 0
	.db #0xff	; 255
	.db #0x00	; 0
	.db #0xff	; 255
	.db #0x00	; 0
	.db #0xff	; 255
	.db #0xfc	; 252
	.db #0xff	; 255
	.db #0x00	; 0
	.db #0xff	; 255
	.db #0x00	; 0
	.db #0xff	; 255
	.db #0x00	; 0
	.db #0xff	; 255
	.db #0x00	; 0
	.db #0xff	; 255
	.db #0x00	; 0
	.db #0xff	; 255
	.db #0x00	; 0
	.db #0xff	; 255
	.db #0x00	; 0
	.db #0xff	; 255
	.db #0xf0	; 240
	.db #0xff	; 255
	.db #0x1f	; 31
	.db #0xff	; 255
	.db #0x1f	; 31
	.db #0xff	; 255
	.db #0x3f	; 63
	.db #0xff	; 255
	.db #0x3f	; 63
	.db #0xff	; 255
	.db #0x3f	; 63
	.db #0xff	; 255
	.db #0x1f	; 31
	.db #0xff	; 255
	.db #0x1f	; 31
	.db #0xff	; 255
	.db #0x1f	; 31
	.db #0xff	; 255
	.db #0xff	; 255
	.db #0xff	; 255
	.db #0xff	; 255
	.db #0xff	; 255
	.db #0xff	; 255
	.db #0xff	; 255
	.db #0xff	; 255
	.db #0xff	; 255
	.db #0xff	; 255
	.db #0xff	; 255
	.db #0x8f	; 143
	.db #0xff	; 255
	.db #0x8f	; 143
	.db #0xff	; 255
	.db #0x8f	; 143
	.db #0xff	; 255
	.db #0x0f	; 15
	.db #0xff	; 255
	.db #0x8f	; 143
	.db #0xff	; 255
	.db #0xcf	; 207
	.db #0xff	; 255
	.db #0xcf	; 207
	.db #0xff	; 255
	.db #0xc7	; 199
	.db #0xff	; 255
	.db #0xc7	; 199
	.db #0xff	; 255
	.db #0xe7	; 231
	.db #0xff	; 255
	.db #0xe7	; 231
	.db #0xff	; 255
	.db #0xff	; 255
	.db #0xff	; 255
	.db #0xff	; 255
	.db #0xff	; 255
	.db #0xff	; 255
	.db #0xff	; 255
	.db #0xff	; 255
	.db #0xff	; 255
	.db #0xff	; 255
	.db #0xff	; 255
	.db #0xe3	; 227
	.db #0xff	; 255
	.db #0xe3	; 227
	.db #0xff	; 255
	.db #0xe3	; 227
	.db #0xff	; 255
	.db #0xc0	; 192
	.db #0xff	; 255
	.db #0xe0	; 224
	.db #0xff	; 255
	.db #0xf0	; 240
	.db #0xff	; 255
	.db #0xf0	; 240
	.db #0xff	; 255
	.db #0xf0	; 240
	.db #0xff	; 255
	.db #0xf0	; 240
	.db #0xff	; 255
	.db #0xf0	; 240
	.db #0xff	; 255
	.db #0xf0	; 240
	.db #0xff	; 255
	.db #0x7f	; 127
	.db #0xff	; 255
	.db #0x7f	; 127
	.db #0xff	; 255
	.db #0x7f	; 127
	.db #0xff	; 255
	.db #0x7f	; 127
	.db #0xff	; 255
	.db #0x7f	; 127
	.db #0xff	; 255
	.db #0xff	; 255
	.db #0xff	; 255
	.db #0xf9	; 249
	.db #0xff	; 255
	.db #0xf9	; 249
	.db #0xff	; 255
	.db #0xe0	; 224
	.db #0xff	; 255
	.db #0xe0	; 224
	.db #0xff	; 255
	.db #0xe0	; 224
	.db #0xff	; 255
	.db #0xe0	; 224
	.db #0xff	; 255
	.db #0xe0	; 224
	.db #0xff	; 255
	.db #0xf0	; 240
	.db #0xff	; 255
	.db #0xf0	; 240
	.db #0xff	; 255
	.db #0xf0	; 240
	.db #0xff	; 255
	.db #0x0f	; 15
	.db #0xff	; 255
	.db #0x1f	; 31
	.db #0xff	; 255
	.db #0x3f	; 63
	.db #0xff	; 255
	.db #0x3f	; 63
	.db #0xff	; 255
	.db #0x3f	; 63
	.db #0xff	; 255
	.db #0x3f	; 63
	.db #0xff	; 255
	.db #0x3f	; 63
	.db #0xff	; 255
	.db #0x7f	; 127
	.db #0xff	; 255
	.db #0xfe	; 254
	.db #0xff	; 255
	.db #0xff	; 255
	.db #0xff	; 255
	.db #0xff	; 255
	.db #0xff	; 255
	.db #0xff	; 255
	.db #0xff	; 255
	.db #0xff	; 255
	.db #0xff	; 255
	.db #0x1f	; 31
	.db #0xff	; 255
	.db #0x1f	; 31
	.db #0xff	; 255
	.db #0x1f	; 31
	.db #0xff	; 255
	.db #0x07	; 7
	.db #0xff	; 255
	.db #0x07	; 7
	.db #0xff	; 255
	.db #0x87	; 135
	.db #0xff	; 255
	.db #0x8f	; 143
	.db #0xff	; 255
	.db #0x8f	; 143
	.db #0xff	; 255
	.db #0x8f	; 143
	.db #0xff	; 255
	.db #0x8f	; 143
	.db #0xff	; 255
	.db #0x0f	; 15
	.db #0xff	; 255
	.db #0xff	; 255
	.db #0xff	; 255
	.db #0xff	; 255
	.db #0xff	; 255
	.db #0xff	; 255
	.db #0xff	; 255
	.db #0xff	; 255
	.db #0xff	; 255
	.db #0xff	; 255
	.db #0xff	; 255
	.db #0xe0	; 224
	.db #0xff	; 255
	.db #0xe0	; 224
	.db #0xff	; 255
	.db #0xe0	; 224
	.db #0xff	; 255
	.db #0xf0	; 240
	.db #0xff	; 255
	.db #0xf0	; 240
	.db #0xff	; 255
	.db #0xe0	; 224
	.db #0xff	; 255
	.db #0xe0	; 224
	.db #0xff	; 255
	.db #0xe0	; 224
	.db #0xff	; 255
	.db #0x00	; 0
	.db #0xff	; 255
	.db #0x00	; 0
	.db #0xff	; 255
	.db #0x00	; 0
	.db #0xff	; 255
	.db #0x00	; 0
	.db #0xff	; 255
	.db #0x00	; 0
	.db #0xff	; 255
	.db #0x80	; 128
	.db #0xff	; 255
	.db #0x80	; 128
	.db #0xff	; 255
	.db #0x80	; 128
	.db #0xff	; 255
	.db #0x80	; 128
	.db #0xff	; 255
	.db #0x80	; 128
	.db #0xff	; 255
	.db #0x00	; 0
	.db #0xff	; 255
	.db #0x0f	; 15
	.db #0xff	; 255
	.db #0x0f	; 15
	.db #0xff	; 255
	.db #0x0f	; 15
	.db #0xff	; 255
	.db #0x07	; 7
	.db #0xff	; 255
	.db #0x07	; 7
	.db #0xff	; 255
	.db #0x07	; 7
	.db #0xff	; 255
	.db #0x03	; 3
	.db #0xff	; 255
	.db #0x01	; 1
	.db #0xff	; 255
	.db #0xc7	; 199
	.db #0xff	; 255
	.db #0xc7	; 199
	.db #0xff	; 255
	.db #0xc0	; 192
	.db #0xff	; 255
	.db #0xe0	; 224
	.db #0xff	; 255
	.db #0xe0	; 224
	.db #0xff	; 255
	.db #0xff	; 255
	.db #0xff	; 255
	.db #0xff	; 255
	.db #0xff	; 255
	.db #0xff	; 255
	.db #0xff	; 255
	.db #0xe7	; 231
	.db #0xff	; 255
	.db #0xe3	; 227
	.db #0xff	; 255
	.db #0x03	; 3
	.db #0xff	; 255
	.db #0x03	; 3
	.db #0xff	; 255
	.db #0x03	; 3
	.db #0xff	; 255
	.db #0x83	; 131
	.db #0xff	; 255
	.db #0xc3	; 195
	.db #0xff	; 255
	.db #0xe1	; 225
	.db #0xff	; 255
	.db #0xe3	; 227
	.db #0xff	; 255
	.db #0xf1	; 241
	.db #0xff	; 255
	.db #0xf1	; 241
	.db #0xff	; 255
	.db #0xf1	; 241
	.db #0xff	; 255
	.db #0xf1	; 241
	.db #0xff	; 255
	.db #0xff	; 255
	.db #0xff	; 255
	.db #0xff	; 255
	.db #0xff	; 255
	.db #0xff	; 255
	.db #0xff	; 255
	.db #0xf0	; 240
	.db #0xff	; 255
	.db #0xf8	; 248
	.db #0xff	; 255
	.db #0xf8	; 248
	.db #0xff	; 255
	.db #0xf8	; 248
	.db #0xff	; 255
	.db #0xf9	; 249
	.db #0xff	; 255
	.db #0xf9	; 249
	.db #0xff	; 255
	.db #0xf9	; 249
	.db #0xff	; 255
	.db #0xf1	; 241
	.db #0xff	; 255
	.db #0xf9	; 249
	.db #0xff	; 255
	.db #0xf9	; 249
	.db #0xff	; 255
	.db #0xf9	; 249
	.db #0xff	; 255
	.db #0xf9	; 249
	.db #0xff	; 255
	.db #0xf0	; 240
	.db #0xff	; 255
	.db #0xf0	; 240
	.db #0xff	; 255
	.db #0xf0	; 240
	.db #0xff	; 255
	.db #0xf0	; 240
	.db #0xff	; 255
	.db #0xf0	; 240
	.db #0xff	; 255
	.db #0xf0	; 240
	.db #0xff	; 255
	.db #0xf0	; 240
	.db #0xff	; 255
	.db #0xf0	; 240
	.db #0xff	; 255
	.db #0xf8	; 248
	.db #0xff	; 255
	.db #0xf8	; 248
	.db #0xff	; 255
	.db #0xf8	; 248
	.db #0xff	; 255
	.db #0xf8	; 248
	.db #0xff	; 255
	.db #0x7f	; 127
	.db #0xff	; 255
	.db #0x7f	; 127
	.db #0xff	; 255
	.db #0x7f	; 127
	.db #0xff	; 255
	.db #0x7e	; 126
	.db #0xff	; 255
	.db #0x7e	; 126
	.db #0xff	; 255
	.db #0xfe	; 254
	.db #0xff	; 255
	.db #0xfe	; 254
	.db #0xff	; 255
	.db #0xfe	; 254
	.db #0xff	; 255
	.db #0x1f	; 31
	.db #0xff	; 255
	.db #0x1f	; 31
	.db #0xff	; 255
	.db #0x00	; 0
	.db #0xff	; 255
	.db #0x00	; 0
	.db #0xff	; 255
	.db #0x00	; 0
	.db #0xff	; 255
	.db #0x00	; 0
	.db #0xff	; 255
	.db #0x00	; 0
	.db #0xff	; 255
	.db #0x00	; 0
	.db #0xff	; 255
	.db #0x1f	; 31
	.db #0xff	; 255
	.db #0x1f	; 31
	.db #0xff	; 255
	.db #0x1f	; 31
	.db #0xff	; 255
	.db #0x1f	; 31
	.db #0xff	; 255
	.db #0x1f	; 31
	.db #0xff	; 255
	.db #0x3f	; 63
	.db #0xff	; 255
	.db #0x3f	; 63
	.db #0xff	; 255
	.db #0x3f	; 63
	.db #0xff	; 255
	.db #0xc0	; 192
	.db #0xff	; 255
	.db #0xc0	; 192
	.db #0xff	; 255
	.db #0xc0	; 192
	.db #0xff	; 255
	.db #0xfe	; 254
	.db #0xff	; 255
	.db #0xfe	; 254
	.db #0xff	; 255
	.db #0xfe	; 254
	.db #0xff	; 255
	.db #0xfc	; 252
	.db #0xff	; 255
	.db #0xfc	; 252
	.db #0xff	; 255
	.db #0x00	; 0
	.db #0xff	; 255
	.db #0x00	; 0
	.db #0xff	; 255
	.db #0x00	; 0
	.db #0xff	; 255
	.db #0x00	; 0
	.db #0xff	; 255
	.db #0x03	; 3
	.db #0xff	; 255
	.db #0x01	; 1
	.db #0xff	; 255
	.db #0x01	; 1
	.db #0xff	; 255
	.db #0x00	; 0
	.db #0xff	; 255
	.db #0xff	; 255
	.db #0xff	; 255
	.db #0x01	; 1
	.db #0xff	; 255
	.db #0x01	; 1
	.db #0xff	; 255
	.db #0x00	; 0
	.db #0xff	; 255
	.db #0xf8	; 248
	.db #0xff	; 255
	.db #0xf8	; 248
	.db #0xff	; 255
	.db #0xff	; 255
	.db #0xff	; 255
	.db #0xff	; 255
	.db #0xff	; 255
	.db #0xf1	; 241
	.db #0xff	; 255
	.db #0xf1	; 241
	.db #0xff	; 255
	.db #0xf1	; 241
	.db #0xff	; 255
	.db #0xf9	; 249
	.db #0xff	; 255
	.db #0xf9	; 249
	.db #0xff	; 255
	.db #0xf8	; 248
	.db #0xff	; 255
	.db #0xf8	; 248
	.db #0xff	; 255
	.db #0xf8	; 248
	.db #0xff	; 255
	.db #0xff	; 255
	.db #0xff	; 255
	.db #0xff	; 255
	.db #0xff	; 255
	.db #0xff	; 255
	.db #0xff	; 255
	.db #0xf8	; 248
	.db #0xff	; 255
	.db #0xf8	; 248
	.db #0xff	; 255
	.db #0xfc	; 252
	.db #0xff	; 255
	.db #0xfc	; 252
	.db #0xff	; 255
	.db #0xfc	; 252
	.db #0xff	; 255
	.db #0xf1	; 241
	.db #0xff	; 255
	.db #0xe1	; 225
	.db #0xff	; 255
	.db #0xe1	; 225
	.db #0xff	; 255
	.db #0x03	; 3
	.db #0xff	; 255
	.db #0x03	; 3
	.db #0xff	; 255
	.db #0x03	; 3
	.db #0xff	; 255
	.db #0x03	; 3
	.db #0xff	; 255
	.db #0x03	; 3
	.db #0xff	; 255
	.db #0xf0	; 240
	.db #0xff	; 255
	.db #0xf0	; 240
	.db #0xff	; 255
	.db #0xff	; 255
	.db #0xff	; 255
	.db #0xff	; 255
	.db #0xff	; 255
	.db #0xff	; 255
	.db #0xff	; 255
	.db #0xe0	; 224
	.db #0xff	; 255
	.db #0xe0	; 224
	.db #0xff	; 255
	.db #0xe0	; 224
	.db #0xff	; 255
	.db #0xf8	; 248
	.db #0xff	; 255
	.db #0xf8	; 248
	.db #0xff	; 255
	.db #0xf9	; 249
	.db #0xff	; 255
	.db #0xfd	; 253
	.db #0xff	; 255
	.db #0xfd	; 253
	.db #0xff	; 255
	.db #0x7d	; 125
	.db #0xff	; 255
	.db #0x7d	; 125
	.db #0xff	; 255
	.db #0x7c	; 124
	.db #0xff	; 255
	.db #0xfc	; 252
	.db #0xff	; 255
	.db #0xfc	; 252
	.db #0xff	; 255
	.db #0xfc	; 252
	.db #0xff	; 255
	.db #0xfc	; 252
	.db #0xff	; 255
	.db #0xfc	; 252
	.db #0xff	; 255
	.db #0xfc	; 252
	.db #0xff	; 255
	.db #0xff	; 255
	.db #0xff	; 255
	.db #0xff	; 255
	.db #0xff	; 255
	.db #0x7e	; 126
	.db #0xff	; 255
	.db #0x7e	; 126
	.db #0xff	; 255
	.db #0x7e	; 126
	.db #0xff	; 255
	.db #0x7c	; 124
	.db #0xff	; 255
	.db #0x7c	; 124
	.db #0xff	; 255
	.db #0x7c	; 124
	.db #0xff	; 255
	.db #0xfc	; 252
	.db #0xff	; 255
	.db #0xfc	; 252
	.db #0xff	; 255
	.db #0x3f	; 63
	.db #0xff	; 255
	.db #0x3f	; 63
	.db #0xff	; 255
	.db #0x7f	; 127
	.db #0xff	; 255
	.db #0x7e	; 126
	.db #0xff	; 255
	.db #0x7e	; 126
	.db #0xff	; 255
	.db #0x7e	; 126
	.db #0xff	; 255
	.db #0x7f	; 127
	.db #0xff	; 255
	.db #0xff	; 255
	.db #0xff	; 255
	.db #0x00	; 0
	.db #0xff	; 255
	.db #0x00	; 0
	.db #0xff	; 255
	.db #0x00	; 0
	.db #0xff	; 255
	.db #0x00	; 0
	.db #0xff	; 255
	.db #0x00	; 0
	.db #0xff	; 255
	.db #0x00	; 0
	.db #0xff	; 255
	.db #0xfc	; 252
	.db #0xff	; 255
	.db #0xfc	; 252
	.db #0xff	; 255
	.db #0x00	; 0
	.db #0xff	; 255
	.db #0x00	; 0
	.db #0xff	; 255
	.db #0x01	; 1
	.db #0xff	; 255
	.db #0x01	; 1
	.db #0xff	; 255
	.db #0x01	; 1
	.db #0xff	; 255
	.db #0x01	; 1
	.db #0xff	; 255
	.db #0x01	; 1
	.db #0xff	; 255
	.db #0x00	; 0
	.db #0xff	; 255
	.db #0x7f	; 127
	.db #0xff	; 255
	.db #0x3f	; 63
	.db #0xff	; 255
	.db #0x00	; 0
	.db #0xff	; 255
	.db #0x00	; 0
	.db #0xff	; 255
	.db #0x00	; 0
	.db #0xff	; 255
	.db #0x00	; 0
	.db #0xff	; 255
	.db #0x00	; 0
	.db #0xff	; 255
	.db #0x00	; 0
	.db #0xff	; 255
	.db #0xf0	; 240
	.db #0xff	; 255
	.db #0xe0	; 224
	.db #0xff	; 255
	.db #0x00	; 0
	.db #0xff	; 255
	.db #0x00	; 0
	.db #0xff	; 255
	.db #0x00	; 0
	.db #0xff	; 255
	.db #0x00	; 0
	.db #0xff	; 255
	.db #0x00	; 0
	.db #0xff	; 255
	.db #0x00	; 0
	.db #0xff	; 255
	.db #0xfc	; 252
	.db #0xff	; 255
	.db #0xfc	; 252
	.db #0xff	; 255
	.db #0x00	; 0
	.db #0xff	; 255
	.db #0x00	; 0
	.db #0xff	; 255
	.db #0x00	; 0
	.db #0xff	; 255
	.db #0x00	; 0
	.db #0xff	; 255
	.db #0x00	; 0
	.db #0xff	; 255
	.db #0x00	; 0
	.db #0xff	; 255
	.db #0x03	; 3
	.db #0xff	; 255
	.db #0x03	; 3
	.db #0xff	; 255
	.db #0x00	; 0
	.db #0xff	; 255
	.db #0x00	; 0
	.db #0xff	; 255
	.db #0x00	; 0
	.db #0xff	; 255
	.db #0x00	; 0
	.db #0xff	; 255
	.db #0x00	; 0
	.db #0xff	; 255
	.db #0x00	; 0
	.db #0xff	; 255
	.db #0xe0	; 224
	.db #0xff	; 255
	.db #0xe0	; 224
	.db #0xff	; 255
	.db #0x00	; 0
	.db #0xff	; 255
	.db #0x00	; 0
	.db #0xff	; 255
	.db #0x00	; 0
	.db #0xff	; 255
	.db #0x00	; 0
	.db #0xff	; 255
	.db #0x00	; 0
	.db #0xff	; 255
	.db #0x00	; 0
	.db #0xff	; 255
	.db #0x7c	; 124
	.db #0xff	; 255
	.db #0x7c	; 124
	.db #0xff	; 255
	.db #0x00	; 0
	.db #0xff	; 255
	.db #0x00	; 0
	.db #0xff	; 255
	.db #0x00	; 0
	.db #0xff	; 255
	.db #0x00	; 0
	.db #0xff	; 255
	.db #0x00	; 0
	.db #0xff	; 255
	.db #0x00	; 0
	.db #0xff	; 255
	.db #0xf8	; 248
	.db #0xff	; 255
	.db #0xf0	; 240
	.db #0xff	; 255
	.db #0x00	; 0
	.db #0xff	; 255
	.db #0x00	; 0
	.db #0xff	; 255
	.db #0x00	; 0
	.db #0xff	; 255
	.db #0x00	; 0
	.db #0xff	; 255
	.db #0x00	; 0
	.db #0xff	; 255
	.db #0x00	; 0
	.db #0xff	; 255
	.db #0xff	; 255
	.db #0xff	; 255
	.db #0xff	; 255
	.db #0xff	; 255
	.db #0x00	; 0
	.db #0xff	; 255
	.db #0x00	; 0
	.db #0xff	; 255
	.db #0x00	; 0
	.db #0xff	; 255
	.db #0x00	; 0
	.db #0xff	; 255
	.db #0x00	; 0
	.db #0xff	; 255
	.db #0x00	; 0
	.db #0xff	; 255
	.db #0xf8	; 248
	.db #0xff	; 255
	.db #0xf8	; 248
	.db #0xff	; 255
	.db #0x00	; 0
	.db #0xff	; 255
	.db #0x00	; 0
	.db #0xff	; 255
	.db #0x00	; 0
	.db #0xff	; 255
	.db #0x00	; 0
	.db #0xff	; 255
	.db #0x00	; 0
	.db #0xff	; 255
	.db #0x00	; 0
	.db #0xff	; 255
	.db #0x7f	; 127
	.db #0xff	; 255
	.db #0x3f	; 63
	.db #0xff	; 255
	.db #0x3f	; 63
	.db #0xff	; 255
	.db #0x1f	; 31
	.db #0xff	; 255
	.db #0x1f	; 31
	.db #0xff	; 255
	.db #0x0f	; 15
	.db #0xff	; 255
	.db #0x0f	; 15
	.db #0xff	; 255
	.db #0x07	; 7
	.db #0xff	; 255
	.db #0x8f	; 143
	.db #0xff	; 255
	.db #0x8f	; 143
	.db #0xff	; 255
	.db #0xc7	; 199
	.db #0xff	; 255
	.db #0xc7	; 199
	.db #0xff	; 255
	.db #0xe3	; 227
	.db #0xff	; 255
	.db #0xe3	; 227
	.db #0xff	; 255
	.db #0xe3	; 227
	.db #0xff	; 255
	.db #0xf1	; 241
	.db #0xff	; 255
	.db #0x8f	; 143
	.db #0xff	; 255
	.db #0xc7	; 199
	.db #0xff	; 255
	.db #0xe7	; 231
	.db #0xff	; 255
	.db #0xe3	; 227
	.db #0xff	; 255
	.db #0xf1	; 241
	.db #0xff	; 255
	.db #0xf9	; 249
	.db #0xff	; 255
	.db #0xfc	; 252
	.db #0xff	; 255
	.db #0xfc	; 252
	.db #0xff	; 255
	.db #0xe7	; 231
	.db #0xff	; 255
	.db #0xe3	; 227
	.db #0xff	; 255
	.db #0xe3	; 227
	.db #0xff	; 255
	.db #0xf1	; 241
	.db #0xff	; 255
	.db #0xf1	; 241
	.db #0xff	; 255
	.db #0xf8	; 248
	.db #0xff	; 255
	.db #0xf8	; 248
	.db #0xff	; 255
	.db #0xf8	; 248
	.db #0xff	; 255
	.db #0xf0	; 240
	.db #0xff	; 255
	.db #0xf0	; 240
	.db #0xff	; 255
	.db #0xf8	; 248
	.db #0xff	; 255
	.db #0xf8	; 248
	.db #0xff	; 255
	.db #0xfc	; 252
	.db #0xff	; 255
	.db #0xfc	; 252
	.db #0xff	; 255
	.db #0xfc	; 252
	.db #0xff	; 255
	.db #0x7e	; 126
	.db #0xff	; 255
	.db #0x3f	; 63
	.db #0xff	; 255
	.db #0x3f	; 63
	.db #0xff	; 255
	.db #0x3f	; 63
	.db #0xff	; 255
	.db #0x3f	; 63
	.db #0xff	; 255
	.db #0x3f	; 63
	.db #0xff	; 255
	.db #0x1f	; 31
	.db #0xff	; 255
	.db #0x1f	; 31
	.db #0xff	; 255
	.db #0x1f	; 31
	.db #0xff	; 255
	.db #0x87	; 135
	.db #0xff	; 255
	.db #0x87	; 135
	.db #0xff	; 255
	.db #0x87	; 135
	.db #0xff	; 255
	.db #0x87	; 135
	.db #0xff	; 255
	.db #0x87	; 135
	.db #0xff	; 255
	.db #0x87	; 135
	.db #0xff	; 255
	.db #0x87	; 135
	.db #0xff	; 255
	.db #0x87	; 135
	.db #0xff	; 255
	.db #0xfe	; 254
	.db #0xff	; 255
	.db #0xfe	; 254
	.db #0xff	; 255
	.db #0xfe	; 254
	.db #0xff	; 255
	.db #0xff	; 255
	.db #0xff	; 255
	.db #0xff	; 255
	.db #0xff	; 255
	.db #0xff	; 255
	.db #0xff	; 255
	.db #0xff	; 255
	.db #0xff	; 255
	.db #0xdf	; 223
	.db #0xff	; 255
	.db #0x03	; 3
	.db #0xff	; 255
	.db #0x03	; 3
	.db #0xff	; 255
	.db #0x03	; 3
	.db #0xff	; 255
	.db #0x03	; 3
	.db #0xff	; 255
	.db #0x03	; 3
	.db #0xff	; 255
	.db #0x03	; 3
	.db #0xff	; 255
	.db #0x03	; 3
	.db #0xff	; 255
	.db #0x83	; 131
	.db #0xff	; 255
	.db #0xff	; 255
	.db #0xff	; 255
	.db #0xff	; 255
	.db #0xff	; 255
	.db #0xff	; 255
	.db #0xff	; 255
	.db #0xff	; 255
	.db #0xff	; 255
	.db #0xf0	; 240
	.db #0xff	; 255
	.db #0xf0	; 240
	.db #0xff	; 255
	.db #0xf0	; 240
	.db #0xff	; 255
	.db #0xf0	; 240
	.db #0xff	; 255
	.db #0xf0	; 240
	.db #0xff	; 255
	.db #0xf8	; 248
	.db #0xff	; 255
	.db #0xfc	; 252
	.db #0xff	; 255
	.db #0xfc	; 252
	.db #0xff	; 255
	.db #0xfc	; 252
	.db #0xff	; 255
	.db #0xfc	; 252
	.db #0xff	; 255
	.db #0xfc	; 252
	.db #0xff	; 255
	.db #0xfc	; 252
	.db #0xff	; 255
	.db #0x3f	; 63
	.db #0xff	; 255
	.db #0x3f	; 63
	.db #0xff	; 255
	.db #0x3f	; 63
	.db #0xff	; 255
	.db #0x3f	; 63
	.db #0xff	; 255
	.db #0x3f	; 63
	.db #0xff	; 255
	.db #0x7f	; 127
	.db #0xff	; 255
	.db #0x7f	; 127
	.db #0xff	; 255
	.db #0x7e	; 126
	.db #0xff	; 255
	.db #0xff	; 255
	.db #0xff	; 255
	.db #0xff	; 255
	.db #0xff	; 255
	.db #0xff	; 255
	.db #0xff	; 255
	.db #0xff	; 255
	.db #0xff	; 255
	.db #0x00	; 0
	.db #0xff	; 255
	.db #0x00	; 0
	.db #0xff	; 255
	.db #0x00	; 0
	.db #0xff	; 255
	.db #0x00	; 0
	.db #0xff	; 255
	.db #0x8f	; 143
	.db #0xff	; 255
	.db #0x8f	; 143
	.db #0xff	; 255
	.db #0x8f	; 143
	.db #0xff	; 255
	.db #0x1f	; 31
	.db #0xff	; 255
	.db #0x1f	; 31
	.db #0xff	; 255
	.db #0x1f	; 31
	.db #0xff	; 255
	.db #0x1f	; 31
	.db #0xff	; 255
	.db #0x3f	; 63
	.db #0xff	; 255
	.db #0xff	; 255
	.db #0xff	; 255
	.db #0xff	; 255
	.db #0xff	; 255
	.db #0xff	; 255
	.db #0xff	; 255
	.db #0xff	; 255
	.db #0xff	; 255
	.db #0xc7	; 199
	.db #0xff	; 255
	.db #0xc7	; 199
	.db #0xff	; 255
	.db #0x8f	; 143
	.db #0xff	; 255
	.db #0x8f	; 143
	.db #0xff	; 255
	.db #0xc0	; 192
	.db #0xff	; 255
	.db #0xe0	; 224
	.db #0xff	; 255
	.db #0xf1	; 241
	.db #0xff	; 255
	.db #0xf1	; 241
	.db #0xff	; 255
	.db #0xf3	; 243
	.db #0xff	; 255
	.db #0xe3	; 227
	.db #0xff	; 255
	.db #0xe7	; 231
	.db #0xff	; 255
	.db #0xe7	; 231
	.db #0xff	; 255
	.db #0x1f	; 31
	.db #0xff	; 255
	.db #0x7f	; 127
	.db #0xff	; 255
	.db #0xff	; 255
	.db #0xff	; 255
	.db #0xff	; 255
	.db #0xff	; 255
	.db #0xf8	; 248
	.db #0xff	; 255
	.db #0xf8	; 248
	.db #0xff	; 255
	.db #0xf1	; 241
	.db #0xff	; 255
	.db #0xf1	; 241
	.db #0xff	; 255
	.db #0xfc	; 252
	.db #0xff	; 255
	.db #0xfe	; 254
	.db #0xff	; 255
	.db #0xff	; 255
	.db #0xff	; 255
	.db #0xff	; 255
	.db #0xff	; 255
	.db #0x7e	; 126
	.db #0xff	; 255
	.db #0xfe	; 254
	.db #0xff	; 255
	.db #0xfc	; 252
	.db #0xff	; 255
	.db #0xfc	; 252
	.db #0xff	; 255
	.db #0x07	; 7
	.db #0xff	; 255
	.db #0x03	; 3
	.db #0xff	; 255
	.db #0x03	; 3
	.db #0xff	; 255
	.db #0x01	; 1
	.db #0xff	; 255
	.db #0x01	; 1
	.db #0xff	; 255
	.db #0x00	; 0
	.db #0xff	; 255
	.db #0x00	; 0
	.db #0xff	; 255
	.db #0x00	; 0
	.db #0xff	; 255
	.db #0xf1	; 241
	.db #0xff	; 255
	.db #0xf8	; 248
	.db #0xff	; 255
	.db #0xf8	; 248
	.db #0xff	; 255
	.db #0xfc	; 252
	.db #0xff	; 255
	.db #0xfc	; 252
	.db #0xff	; 255
	.db #0xfc	; 252
	.db #0xff	; 255
	.db #0xfe	; 254
	.db #0xff	; 255
	.db #0x7e	; 126
	.db #0xff	; 255
	.db #0xfe	; 254
	.db #0xff	; 255
	.db #0xff	; 255
	.db #0xff	; 255
	.db #0xff	; 255
	.db #0xff	; 255
	.db #0x7f	; 127
	.db #0xff	; 255
	.db #0x7f	; 127
	.db #0xff	; 255
	.db #0x7e	; 126
	.db #0xff	; 255
	.db #0x3e	; 62
	.db #0xff	; 255
	.db #0x3f	; 63
	.db #0xff	; 255
	.db #0x7c	; 124
	.db #0xff	; 255
	.db #0x7c	; 124
	.db #0xff	; 255
	.db #0xfe	; 254
	.db #0xff	; 255
	.db #0xfe	; 254
	.db #0xff	; 255
	.db #0xfe	; 254
	.db #0xff	; 255
	.db #0xff	; 255
	.db #0xff	; 255
	.db #0x7f	; 127
	.db #0xff	; 255
	.db #0x3f	; 63
	.db #0xff	; 255
	.db #0x7e	; 126
	.db #0xff	; 255
	.db #0x3f	; 63
	.db #0xff	; 255
	.db #0x3f	; 63
	.db #0xff	; 255
	.db #0x1f	; 31
	.db #0xff	; 255
	.db #0x0f	; 15
	.db #0xff	; 255
	.db #0x0f	; 15
	.db #0xff	; 255
	.db #0x07	; 7
	.db #0xff	; 255
	.db #0x87	; 135
	.db #0xff	; 255
	.db #0x1f	; 31
	.db #0xff	; 255
	.db #0x1f	; 31
	.db #0xff	; 255
	.db #0x1f	; 31
	.db #0xff	; 255
	.db #0x8f	; 143
	.db #0xff	; 255
	.db #0x8f	; 143
	.db #0xff	; 255
	.db #0xcf	; 207
	.db #0xff	; 255
	.db #0xcf	; 207
	.db #0xff	; 255
	.db #0xef	; 239
	.db #0xff	; 255
	.db #0x87	; 135
	.db #0xff	; 255
	.db #0x87	; 135
	.db #0xff	; 255
	.db #0x87	; 135
	.db #0xff	; 255
	.db #0xc7	; 199
	.db #0xff	; 255
	.db #0xc7	; 199
	.db #0xff	; 255
	.db #0xc7	; 199
	.db #0xff	; 255
	.db #0xc7	; 199
	.db #0xff	; 255
	.db #0xc7	; 199
	.db #0xff	; 255
	.db #0xdf	; 223
	.db #0xff	; 255
	.db #0xdf	; 223
	.db #0xff	; 255
	.db #0xcf	; 207
	.db #0xff	; 255
	.db #0xcf	; 207
	.db #0xff	; 255
	.db #0xcf	; 207
	.db #0xff	; 255
	.db #0xcf	; 207
	.db #0xff	; 255
	.db #0xc7	; 199
	.db #0xff	; 255
	.db #0xc7	; 199
	.db #0xff	; 255
	.db #0x83	; 131
	.db #0xff	; 255
	.db #0x83	; 131
	.db #0xff	; 255
	.db #0x83	; 131
	.db #0xff	; 255
	.db #0xc3	; 195
	.db #0xff	; 255
	.db #0xc3	; 195
	.db #0xff	; 255
	.db #0xc3	; 195
	.db #0xff	; 255
	.db #0xc3	; 195
	.db #0xff	; 255
	.db #0xe3	; 227
	.db #0xff	; 255
	.db #0xf0	; 240
	.db #0xff	; 255
	.db #0xf0	; 240
	.db #0xff	; 255
	.db #0xf0	; 240
	.db #0xff	; 255
	.db #0xf1	; 241
	.db #0xff	; 255
	.db #0xf1	; 241
	.db #0xff	; 255
	.db #0xf1	; 241
	.db #0xff	; 255
	.db #0xf1	; 241
	.db #0xff	; 255
	.db #0xf1	; 241
	.db #0xff	; 255
	.db #0xfc	; 252
	.db #0xff	; 255
	.db #0xfc	; 252
	.db #0xff	; 255
	.db #0xfc	; 252
	.db #0xff	; 255
	.db #0xf8	; 248
	.db #0xff	; 255
	.db #0xf8	; 248
	.db #0xff	; 255
	.db #0xf8	; 248
	.db #0xff	; 255
	.db #0xf8	; 248
	.db #0xff	; 255
	.db #0xf8	; 248
	.db #0xff	; 255
	.db #0x7e	; 126
	.db #0xff	; 255
	.db #0x7f	; 127
	.db #0xff	; 255
	.db #0x7f	; 127
	.db #0xff	; 255
	.db #0xff	; 255
	.db #0xff	; 255
	.db #0xff	; 255
	.db #0xff	; 255
	.db #0xfc	; 252
	.db #0xff	; 255
	.db #0xfc	; 252
	.db #0xff	; 255
	.db #0xfc	; 252
	.db #0xff	; 255
	.db #0x00	; 0
	.db #0xff	; 255
	.db #0xfc	; 252
	.db #0xff	; 255
	.db #0xfc	; 252
	.db #0xff	; 255
	.db #0xf8	; 248
	.db #0xff	; 255
	.db #0xf8	; 248
	.db #0xff	; 255
	.db #0x00	; 0
	.db #0xff	; 255
	.db #0x00	; 0
	.db #0xff	; 255
	.db #0x00	; 0
	.db #0xff	; 255
	.db #0x3f	; 63
	.db #0xff	; 255
	.db #0x3f	; 63
	.db #0xff	; 255
	.db #0x3f	; 63
	.db #0xff	; 255
	.db #0x7f	; 127
	.db #0xff	; 255
	.db #0x7f	; 127
	.db #0xff	; 255
	.db #0x7f	; 127
	.db #0xff	; 255
	.db #0x7e	; 126
	.db #0xff	; 255
	.db #0xfe	; 254
	.db #0xff	; 255
	.db #0x8f	; 143
	.db #0xff	; 255
	.db #0x1f	; 31
	.db #0xff	; 255
	.db #0x1f	; 31
	.db #0xff	; 255
	.db #0xfe	; 254
	.db #0xff	; 255
	.db #0xf8	; 248
	.db #0xff	; 255
	.db #0xfe	; 254
	.db #0xff	; 255
	.db #0x3f	; 63
	.db #0xff	; 255
	.db #0x3f	; 63
	.db #0xff	; 255
	.db #0xc7	; 199
	.db #0xff	; 255
	.db #0xcf	; 207
	.db #0xff	; 255
	.db #0x8f	; 143
	.db #0xff	; 255
	.db #0x0f	; 15
	.db #0xff	; 255
	.db #0x07	; 7
	.db #0xff	; 255
	.db #0x03	; 3
	.db #0xff	; 255
	.db #0x00	; 0
	.db #0xff	; 255
	.db #0x00	; 0
	.db #0xff	; 255
	.db #0xe0	; 224
	.db #0xff	; 255
	.db #0xe0	; 224
	.db #0xff	; 255
	.db #0xff	; 255
	.db #0xff	; 255
	.db #0xff	; 255
	.db #0xff	; 255
	.db #0xff	; 255
	.db #0xff	; 255
	.db #0xff	; 255
	.db #0xff	; 255
	.db #0x0f	; 15
	.db #0xff	; 255
	.db #0x1f	; 31
	.db #0xff	; 255
	.db #0x00	; 0
	.db #0xff	; 255
	.db #0x00	; 0
	.db #0xff	; 255
	.db #0x80	; 128
	.db #0xff	; 255
	.db #0xc0	; 192
	.db #0xff	; 255
	.db #0xe0	; 224
	.db #0xff	; 255
	.db #0xc0	; 192
	.db #0xff	; 255
	.db #0xc0	; 192
	.db #0xff	; 255
	.db #0x80	; 128
	.db #0xff	; 255
	.db #0x7f	; 127
	.db #0xff	; 255
	.db #0x3f	; 63
	.db #0xff	; 255
	.db #0x3f	; 63
	.db #0xff	; 255
	.db #0x1f	; 31
	.db #0xff	; 255
	.db #0x1f	; 31
	.db #0xff	; 255
	.db #0x0f	; 15
	.db #0xff	; 255
	.db #0x00	; 0
	.db #0xff	; 255
	.db #0x00	; 0
	.db #0xff	; 255
	.db #0x1f	; 31
	.db #0xff	; 255
	.db #0x1f	; 31
	.db #0xff	; 255
	.db #0x8f	; 143
	.db #0xff	; 255
	.db #0x8f	; 143
	.db #0xff	; 255
	.db #0xcf	; 207
	.db #0xff	; 255
	.db #0xc7	; 199
	.db #0xff	; 255
	.db #0x00	; 0
	.db #0xff	; 255
	.db #0x00	; 0
	.db #0xff	; 255
	.db #0x1f	; 31
	.db #0xff	; 255
	.db #0x9f	; 159
	.db #0xff	; 255
	.db #0x8f	; 143
	.db #0xff	; 255
	.db #0xc7	; 199
	.db #0xff	; 255
	.db #0xc3	; 195
	.db #0xff	; 255
	.db #0xe1	; 225
	.db #0xff	; 255
	.db #0x00	; 0
	.db #0xff	; 255
	.db #0x00	; 0
	.db #0xff	; 255
	.db #0x83	; 131
	.db #0xff	; 255
	.db #0x83	; 131
	.db #0xff	; 255
	.db #0xc1	; 193
	.db #0xff	; 255
	.db #0xc1	; 193
	.db #0xff	; 255
	.db #0xe0	; 224
	.db #0xff	; 255
	.db #0xe0	; 224
	.db #0xff	; 255
	.db #0x00	; 0
	.db #0xff	; 255
	.db #0x00	; 0
	.db #0xff	; 255
	.db #0xff	; 255
	.db #0xff	; 255
	.db #0xff	; 255
	.db #0xff	; 255
	.db #0xff	; 255
	.db #0xff	; 255
	.db #0xff	; 255
	.db #0xff	; 255
	.db #0xff	; 255
	.db #0xff	; 255
	.db #0xff	; 255
	.db #0xff	; 255
	.db #0x00	; 0
	.db #0xff	; 255
	.db #0x00	; 0
	.db #0xff	; 255
	.db #0xc7	; 199
	.db #0xff	; 255
	.db #0xc7	; 199
	.db #0xff	; 255
	.db #0xc7	; 199
	.db #0xff	; 255
	.db #0xc7	; 199
	.db #0xff	; 255
	.db #0xc7	; 199
	.db #0xff	; 255
	.db #0xc7	; 199
	.db #0xff	; 255
	.db #0x00	; 0
	.db #0xff	; 255
	.db #0x00	; 0
	.db #0xff	; 255
	.db #0xff	; 255
	.db #0xff	; 255
	.db #0xff	; 255
	.db #0xff	; 255
	.db #0xff	; 255
	.db #0xff	; 255
	.db #0xc3	; 195
	.db #0xff	; 255
	.db #0xc3	; 195
	.db #0xff	; 255
	.db #0xc3	; 195
	.db #0xff	; 255
	.db #0x00	; 0
	.db #0xff	; 255
	.db #0x00	; 0
	.db #0xff	; 255
	.db #0xe3	; 227
	.db #0xff	; 255
	.db #0xe3	; 227
	.db #0xff	; 255
	.db #0xe3	; 227
	.db #0xff	; 255
	.db #0xf3	; 243
	.db #0xff	; 255
	.db #0xf3	; 243
	.db #0xff	; 255
	.db #0xf3	; 243
	.db #0xff	; 255
	.db #0x00	; 0
	.db #0xff	; 255
	.db #0x00	; 0
	.db #0xff	; 255
	.db #0xf1	; 241
	.db #0xff	; 255
	.db #0xf1	; 241
	.db #0xff	; 255
	.db #0xf1	; 241
	.db #0xff	; 255
	.db #0xff	; 255
	.db #0xff	; 255
	.db #0xff	; 255
	.db #0xff	; 255
	.db #0xff	; 255
	.db #0xff	; 255
	.db #0x00	; 0
	.db #0xff	; 255
	.db #0x00	; 0
	.db #0xff	; 255
	.db #0xf8	; 248
	.db #0xff	; 255
	.db #0xf9	; 249
	.db #0xff	; 255
	.db #0xf9	; 249
	.db #0xff	; 255
	.db #0xf1	; 241
	.db #0xff	; 255
	.db #0xe1	; 225
	.db #0xff	; 255
	.db #0xc1	; 193
	.db #0xff	; 255
	.db #0x00	; 0
	.db #0xff	; 255
	.db #0x00	; 0
	.db #0xff	; 255
	.db #0xf8	; 248
	.db #0xff	; 255
	.db #0xf8	; 248
	.db #0xff	; 255
	.db #0xf8	; 248
	.db #0xff	; 255
	.db #0xff	; 255
	.db #0xff	; 255
	.db #0xff	; 255
	.db #0xff	; 255
	.db #0xff	; 255
	.db #0xff	; 255
	.db #0x00	; 0
	.db #0xff	; 255
	.db #0x00	; 0
	.db #0xff	; 255
	.db #0x00	; 0
	.db #0xff	; 255
	.db #0x00	; 0
	.db #0xff	; 255
	.db #0x00	; 0
	.db #0xff	; 255
	.db #0xf9	; 249
	.db #0xff	; 255
	.db #0xf9	; 249
	.db #0xff	; 255
	.db #0xf1	; 241
	.db #0xff	; 255
	.db #0x00	; 0
	.db #0xff	; 255
	.db #0x00	; 0
	.db #0xff	; 255
	.db #0xfe	; 254
	.db #0xff	; 255
	.db #0xfc	; 252
	.db #0xff	; 255
	.db #0xfc	; 252
	.db #0xff	; 255
	.db #0xfc	; 252
	.db #0xff	; 255
	.db #0xf8	; 248
	.db #0xff	; 255
	.db #0xf8	; 248
	.db #0xff	; 255
	.db #0x00	; 0
	.db #0xff	; 255
	.db #0x00	; 0
	.db #0xff	; 255
	.db #0x3e	; 62
	.db #0xff	; 255
	.db #0x7e	; 126
	.db #0xff	; 255
	.db #0x7c	; 124
	.db #0xff	; 255
	.db #0x7c	; 124
	.db #0xff	; 255
	.db #0xfc	; 252
	.db #0xff	; 255
	.db #0xf8	; 248
	.db #0xff	; 255
	.db #0x00	; 0
	.db #0xff	; 255
	.db #0x00	; 0
	.db #0xff	; 255
	.db #0x3f	; 63
	.db #0xff	; 255
	.db #0x7e	; 126
	.db #0xff	; 255
	.db #0x7f	; 127
	.db #0xff	; 255
	.db #0x3f	; 63
	.db #0xff	; 255
	.db #0x1f	; 31
	.db #0xff	; 255
	.db #0x0f	; 15
	.db #0xff	; 255
	.db #0x00	; 0
	.db #0xff	; 255
	.db #0x00	; 0
	.db #0xff	; 255
	.db #0x1f	; 31
	.db #0xff	; 255
	.db #0x3f	; 63
	.db #0xff	; 255
	.db #0xff	; 255
	.db #0xff	; 255
	.db #0xfe	; 254
	.db #0xff	; 255
	.db #0xf8	; 248
	.db #0xff	; 255
	.db #0xe0	; 224
	.db #0xff	; 255
	.db #0x00	; 0
	.db #0xff	; 255
	.db #0x00	; 0
	.db #0xff	; 255
	.db #0x80	; 128
	.db #0xff	; 255
	.db #0x00	; 0
	.db #0xff	; 255
	.db #0x00	; 0
	.db #0xff	; 255
	.db #0x00	; 0
	.db #0xff	; 255
	.db #0x00	; 0
	.db #0xff	; 255
	.db #0x00	; 0
	.db #0xff	; 255
	.db #0x00	; 0
	.db #0xff	; 255
	.db #0x00	; 0
	.db #0xff	; 255
	.db #0x00	; 0
	.db #0xff	; 255
	.db #0x00	; 0
	.db #0x87	; 135
	.db #0x78	; 120	'x'
	.db #0xbb	; 187
	.db #0x44	; 68	'D'
	.db #0xbb	; 187
	.db #0x44	; 68	'D'
	.db #0x87	; 135
	.db #0x78	; 120	'x'
	.db #0xbf	; 191
	.db #0x40	; 64
	.db #0xbf	; 191
	.db #0x40	; 64
	.db #0xff	; 255
	.db #0x00	; 0
	.db #0xff	; 255
	.db #0x00	; 0
	.db #0xbb	; 187
	.db #0x44	; 68	'D'
	.db #0xbb	; 187
	.db #0x44	; 68	'D'
	.db #0xbb	; 187
	.db #0x44	; 68	'D'
	.db #0xbb	; 187
	.db #0x44	; 68	'D'
	.db #0xbb	; 187
	.db #0x44	; 68	'D'
	.db #0xbb	; 187
	.db #0x44	; 68	'D'
	.db #0xff	; 255
	.db #0x00	; 0
	.db #0xff	; 255
	.db #0x00	; 0
	.db #0xc7	; 199
	.db #0x38	; 56	'8'
	.db #0xbb	; 187
	.db #0x44	; 68	'D'
	.db #0xbf	; 191
	.db #0x40	; 64
	.db #0xc7	; 199
	.db #0x38	; 56	'8'
	.db #0xfb	; 251
	.db #0x04	; 4
	.db #0xbb	; 187
	.db #0x44	; 68	'D'
	.db #0xff	; 255
	.db #0x00	; 0
	.db #0xff	; 255
	.db #0x00	; 0
	.db #0xbb	; 187
	.db #0x44	; 68	'D'
	.db #0xbb	; 187
	.db #0x44	; 68	'D'
	.db #0xbb	; 187
	.db #0x44	; 68	'D'
	.db #0x83	; 131
	.db #0x7c	; 124
	.db #0xbb	; 187
	.db #0x44	; 68	'D'
	.db #0xbb	; 187
	.db #0x44	; 68	'D'
	.db #0xff	; 255
	.db #0x00	; 0
	.db #0xff	; 255
	.db #0x00	; 0
	.db #0x83	; 131
	.db #0x7c	; 124
	.db #0xef	; 239
	.db #0x10	; 16
	.db #0xef	; 239
	.db #0x10	; 16
	.db #0xef	; 239
	.db #0x10	; 16
	.db #0xef	; 239
	.db #0x10	; 16
	.db #0xef	; 239
	.db #0x10	; 16
	.db #0xff	; 255
	.db #0x00	; 0
	.db #0xff	; 255
	.db #0x00	; 0
	.db #0xef	; 239
	.db #0x10	; 16
	.db #0xd7	; 215
	.db #0x28	; 40
	.db #0xbb	; 187
	.db #0x44	; 68	'D'
	.db #0xbb	; 187
	.db #0x44	; 68	'D'
	.db #0x83	; 131
	.db #0x7c	; 124
	.db #0xbb	; 187
	.db #0x44	; 68	'D'
	.db #0xff	; 255
	.db #0x00	; 0
	.db #0xff	; 255
	.db #0x00	; 0
	.db #0x87	; 135
	.db #0x78	; 120	'x'
	.db #0xbb	; 187
	.db #0x44	; 68	'D'
	.db #0xbb	; 187
	.db #0x44	; 68	'D'
	.db #0x87	; 135
	.db #0x78	; 120	'x'
	.db #0xaf	; 175
	.db #0x50	; 80	'P'
	.db #0xb7	; 183
	.db #0x48	; 72	'H'
	.db #0xbf	; 191
	.db #0x40	; 64
	.db #0xff	; 255
	.db #0x00	; 0
	.db #0xff	; 255
	.db #0x00	; 0
	.db #0xff	; 255
	.db #0x00	; 0
	.db #0xff	; 255
	.db #0x00	; 0
	.db #0xff	; 255
	.db #0x00	; 0
	.db #0xff	; 255
	.db #0x00	; 0
	.db #0xff	; 255
	.db #0x00	; 0
	.db #0xc7	; 199
	.db #0x38	; 56	'8'
	.db #0xff	; 255
	.db #0x00	; 0
	.db #0xff	; 255
	.db #0x00	; 0
	.db #0xff	; 255
	.db #0x00	; 0
	.db #0xff	; 255
	.db #0x00	; 0
	.db #0xff	; 255
	.db #0x00	; 0
	.db #0xff	; 255
	.db #0x00	; 0
	.db #0xff	; 255
	.db #0x00	; 0
	.db #0xbb	; 187
	.db #0x44	; 68	'D'
	.db #0xff	; 255
	.db #0x00	; 0
	.db #0xff	; 255
	.db #0x00	; 0
	.db #0xff	; 255
	.db #0x00	; 0
	.db #0xff	; 255
	.db #0x00	; 0
	.db #0xff	; 255
	.db #0x00	; 0
	.db #0xff	; 255
	.db #0x00	; 0
	.db #0xff	; 255
	.db #0x00	; 0
	.db #0xef	; 239
	.db #0x10	; 16
	.db #0xff	; 255
	.db #0x00	; 0
	.db #0xff	; 255
	.db #0x00	; 0
	.db #0xff	; 255
	.db #0x00	; 0
	.db #0xff	; 255
	.db #0x00	; 0
	.db #0xff	; 255
	.db #0x00	; 0
	.db #0xff	; 255
	.db #0x00	; 0
	.db #0xff	; 255
	.db #0x00	; 0
_scrTitle_map:
	.db #0x00	; 0
	.db #0x00	; 0
	.db #0x00	; 0
	.db #0x00	; 0
	.db #0x00	; 0
	.db #0x00	; 0
	.db #0x00	; 0
	.db #0x00	; 0
	.db #0x00	; 0
	.db #0x00	; 0
	.db #0x00	; 0
	.db #0x00	; 0
	.db #0x00	; 0
	.db #0x00	; 0
	.db #0x00	; 0
	.db #0x00	; 0
	.db #0x00	; 0
	.db #0x00	; 0
	.db #0x00	; 0
	.db #0x00	; 0
	.db #0x00	; 0
	.db #0x00	; 0
	.db #0x00	; 0
	.db #0x00	; 0
	.db #0x00	; 0
	.db #0x00	; 0
	.db #0x00	; 0
	.db #0x00	; 0
	.db #0x00	; 0
	.db #0x00	; 0
	.db #0x00	; 0
	.db #0x00	; 0
	.db #0x00	; 0
	.db #0x00	; 0
	.db #0x00	; 0
	.db #0x00	; 0
	.db #0x00	; 0
	.db #0x00	; 0
	.db #0x00	; 0
	.db #0x00	; 0
	.db #0x00	; 0
	.db #0x00	; 0
	.db #0x01	; 1
	.db #0x02	; 2
	.db #0x01	; 1
	.db #0x03	; 3
	.db #0x04	; 4
	.db #0x05	; 5
	.db #0x06	; 6
	.db #0x07	; 7
	.db #0x08	; 8
	.db #0x07	; 7
	.db #0x03	; 3
	.db #0x09	; 9
	.db #0x00	; 0
	.db #0x07	; 7
	.db #0x08	; 8
	.db #0x00	; 0
	.db #0x00	; 0
	.db #0x00	; 0
	.db #0x00	; 0
	.db #0x00	; 0
	.db #0x0a	; 10
	.db #0x0b	; 11
	.db #0x0c	; 12
	.db #0x0d	; 13
	.db #0x0e	; 14
	.db #0x0f	; 15
	.db #0x10	; 16
	.db #0x11	; 17
	.db #0x12	; 18
	.db #0x13	; 19
	.db #0x14	; 20
	.db #0x15	; 21
	.db #0x00	; 0
	.db #0x11	; 17
	.db #0x12	; 18
	.db #0x16	; 22
	.db #0x00	; 0
	.db #0x00	; 0
	.db #0x00	; 0
	.db #0x00	; 0
	.db #0x17	; 23
	.db #0x18	; 24
	.db #0x19	; 25
	.db #0x1a	; 26
	.db #0x1b	; 27
	.db #0x1c	; 28
	.db #0x1d	; 29
	.db #0x1e	; 30
	.db #0x1f	; 31
	.db #0x20	; 32
	.db #0x21	; 33
	.db #0x00	; 0
	.db #0x00	; 0
	.db #0x1e	; 30
	.db #0x1f	; 31
	.db #0x00	; 0
	.db #0x00	; 0
	.db #0x00	; 0
	.db #0x00	; 0
	.db #0x00	; 0
	.db #0x22	; 34
	.db #0x23	; 35
	.db #0x24	; 36
	.db #0x25	; 37
	.db #0x26	; 38
	.db #0x27	; 39
	.db #0x28	; 40
	.db #0x29	; 41
	.db #0x2a	; 42
	.db #0x2b	; 43
	.db #0x2c	; 44
	.db #0x00	; 0
	.db #0x2d	; 45
	.db #0x29	; 41
	.db #0x2a	; 42
	.db #0x00	; 0
	.db #0x00	; 0
	.db #0x00	; 0
	.db #0x00	; 0
	.db #0x00	; 0
	.db #0x00	; 0
	.db #0x2e	; 46
	.db #0x2f	; 47
	.db #0x30	; 48	'0'
	.db #0x31	; 49	'1'
	.db #0x32	; 50	'2'
	.db #0x33	; 51	'3'
	.db #0x2e	; 46
	.db #0x34	; 52	'4'
	.db #0x35	; 53	'5'
	.db #0x36	; 54	'6'
	.db #0x00	; 0
	.db #0x00	; 0
	.db #0x2e	; 46
	.db #0x34	; 52	'4'
	.db #0x00	; 0
	.db #0x00	; 0
	.db #0x00	; 0
	.db #0x00	; 0
	.db #0x37	; 55	'7'
	.db #0x38	; 56	'8'
	.db #0x39	; 57	'9'
	.db #0x3a	; 58
	.db #0x3b	; 59
	.db #0x3c	; 60
	.db #0x3d	; 61
	.db #0x3e	; 62
	.db #0x3f	; 63
	.db #0x40	; 64
	.db #0x41	; 65	'A'
	.db #0x42	; 66	'B'
	.db #0x43	; 67	'C'
	.db #0x44	; 68	'D'
	.db #0x45	; 69	'E'
	.db #0x46	; 70	'F'
	.db #0x47	; 71	'G'
	.db #0x48	; 72	'H'
	.db #0x00	; 0
	.db #0x00	; 0
	.db #0x49	; 73	'I'
	.db #0x4a	; 74	'J'
	.db #0x4b	; 75	'K'
	.db #0x4c	; 76	'L'
	.db #0x4d	; 77	'M'
	.db #0x4e	; 78	'N'
	.db #0x4f	; 79	'O'
	.db #0x50	; 80	'P'
	.db #0x51	; 81	'Q'
	.db #0x52	; 82	'R'
	.db #0x53	; 83	'S'
	.db #0x54	; 84	'T'
	.db #0x55	; 85	'U'
	.db #0x56	; 86	'V'
	.db #0x57	; 87	'W'
	.db #0x58	; 88	'X'
	.db #0x59	; 89	'Y'
	.db #0x5a	; 90	'Z'
	.db #0x00	; 0
	.db #0x00	; 0
	.db #0x00	; 0
	.db #0x5b	; 91
	.db #0x5c	; 92
	.db #0x5d	; 93
	.db #0x5e	; 94
	.db #0x5f	; 95
	.db #0x60	; 96
	.db #0x61	; 97	'a'
	.db #0x62	; 98	'b'
	.db #0x63	; 99	'c'
	.db #0x64	; 100	'd'
	.db #0x65	; 101	'e'
	.db #0x66	; 102	'f'
	.db #0x67	; 103	'g'
	.db #0x68	; 104	'h'
	.db #0x69	; 105	'i'
	.db #0x6a	; 106	'j'
	.db #0x6b	; 107	'k'
	.db #0x00	; 0
	.db #0x00	; 0
	.db #0x00	; 0
	.db #0x00	; 0
	.db #0x00	; 0
	.db #0x00	; 0
	.db #0x00	; 0
	.db #0x00	; 0
	.db #0x00	; 0
	.db #0x00	; 0
	.db #0x00	; 0
	.db #0x00	; 0
	.db #0x00	; 0
	.db #0x00	; 0
	.db #0x00	; 0
	.db #0x00	; 0
	.db #0x00	; 0
	.db #0x00	; 0
	.db #0x00	; 0
	.db #0x00	; 0
	.db #0x00	; 0
	.db #0x00	; 0
	.db #0x00	; 0
	.db #0x00	; 0
	.db #0x00	; 0
	.db #0x00	; 0
	.db #0x00	; 0
	.db #0x00	; 0
	.db #0x00	; 0
	.db #0x00	; 0
	.db #0x00	; 0
	.db #0x00	; 0
	.db #0x00	; 0
	.db #0x00	; 0
	.db #0x00	; 0
	.db #0x00	; 0
	.db #0x00	; 0
	.db #0x00	; 0
	.db #0x00	; 0
	.db #0x00	; 0
	.db #0x00	; 0
	.db #0x00	; 0
	.db #0x00	; 0
	.db #0x00	; 0
	.db #0x00	; 0
	.db #0x00	; 0
	.db #0x00	; 0
	.db #0x00	; 0
	.db #0x00	; 0
	.db #0x00	; 0
	.db #0x00	; 0
	.db #0x00	; 0
	.db #0x00	; 0
	.db #0x00	; 0
	.db #0x00	; 0
	.db #0x00	; 0
	.db #0x00	; 0
	.db #0x00	; 0
	.db #0x00	; 0
	.db #0x00	; 0
	.db #0x00	; 0
	.db #0x00	; 0
	.db #0x00	; 0
	.db #0x00	; 0
	.db #0x00	; 0
	.db #0x00	; 0
	.db #0x6c	; 108	'l'
	.db #0x6d	; 109	'm'
	.db #0x6e	; 110	'n'
	.db #0x6f	; 111	'o'
	.db #0x00	; 0
	.db #0x6e	; 110	'n'
	.db #0x70	; 112	'p'
	.db #0x71	; 113	'q'
	.db #0x72	; 114	'r'
	.db #0x70	; 112	'p'
	.db #0x00	; 0
	.db #0x00	; 0
	.db #0x00	; 0
	.db #0x00	; 0
	.db #0x00	; 0
	.db #0x00	; 0
	.db #0x00	; 0
	.db #0x00	; 0
	.db #0x00	; 0
	.db #0x00	; 0
	.db #0x73	; 115	's'
	.db #0x74	; 116	't'
	.db #0x74	; 116	't'
	.db #0x75	; 117	'u'
	.db #0x00	; 0
	.db #0x74	; 116	't'
	.db #0x76	; 118	'v'
	.db #0x75	; 117	'u'
	.db #0x75	; 117	'u'
	.db #0x76	; 118	'v'
	.db #0x00	; 0
	.db #0x00	; 0
	.db #0x00	; 0
	.db #0x00	; 0
	.db #0x00	; 0
	.db #0x00	; 0
	.db #0x00	; 0
	.db #0x00	; 0
	.db #0x00	; 0
	.db #0x00	; 0
	.db #0x00	; 0
	.db #0x00	; 0
	.db #0x00	; 0
	.db #0x00	; 0
	.db #0x00	; 0
	.db #0x00	; 0
	.db #0x00	; 0
	.db #0x00	; 0
	.db #0x00	; 0
	.db #0x00	; 0
	.db #0x00	; 0
	.db #0x00	; 0
	.db #0x00	; 0
	.db #0x00	; 0
	.db #0x00	; 0
	.db #0x00	; 0
	.db #0x00	; 0
	.db #0x00	; 0
	.db #0x00	; 0
	.db #0x00	; 0
	.db #0x00	; 0
	.db #0x00	; 0
	.db #0x00	; 0
	.db #0x00	; 0
	.db #0x00	; 0
	.db #0x00	; 0
	.db #0x00	; 0
	.db #0x00	; 0
	.db #0x00	; 0
	.db #0x00	; 0
	.db #0x00	; 0
	.db #0x00	; 0
	.db #0x00	; 0
	.db #0x00	; 0
	.db #0x00	; 0
	.db #0x00	; 0
	.db #0x00	; 0
	.db #0x00	; 0
	.db #0x00	; 0
	.db #0x00	; 0
	.db #0x00	; 0
	.db #0x00	; 0
	.db #0x00	; 0
	.db #0x00	; 0
	.db #0x00	; 0
	.db #0x00	; 0
	.db #0x00	; 0
	.db #0x00	; 0
	.db #0x00	; 0
	.db #0x00	; 0
	.db #0x00	; 0
	.db #0x00	; 0
	.db #0x00	; 0
	.db #0x00	; 0
	.db #0x00	; 0
;bitfalls.c:80: void performant_delay(UINT8 time) {
;	---------------------------------
; Function performant_delay
; ---------------------------------
_performant_delay::
	ld	c, a
;bitfalls.c:81: for (UINT8 i = 0; i < time; i++) {
	ld	b, #0x00
00103$:
	ld	a, b
	sub	a, c
	ret	NC
;bitfalls.c:82: wait_vbl_done();
	call	_wait_vbl_done
;bitfalls.c:81: for (UINT8 i = 0; i < time; i++) {
	inc	b
;bitfalls.c:84: }
	jr	00103$
;bitfalls.c:86: void setup_sound() {
;	---------------------------------
; Function setup_sound
; ---------------------------------
_setup_sound::
;bitfalls.c:88: NR52_REG = 0x80;    // Turns on sound
	ld	a, #0x80
	ldh	(_NR52_REG + 0), a
;bitfalls.c:89: NR50_REG = 0x77;    // Sets the volume to max
	ld	a, #0x77
	ldh	(_NR50_REG + 0), a
;bitfalls.c:90: NR51_REG = 0xFF;    // Selects all channels to use
	ld	a, #0xff
	ldh	(_NR51_REG + 0), a
;bitfalls.c:91: }
	ret
;bitfalls.c:93: void play_shooting_sound() {
;	---------------------------------
; Function play_shooting_sound
; ---------------------------------
_play_shooting_sound::
;bitfalls.c:94: NR10_REG = 0x16;    // See https://www.youtube.com/watch?v=psCxZr9iDck
	ld	a, #0x16
	ldh	(_NR10_REG + 0), a
;bitfalls.c:95: NR11_REG = 0x40;
	ld	a, #0x40
	ldh	(_NR11_REG + 0), a
;bitfalls.c:96: NR12_REG = 0x73;
	ld	a, #0x73
	ldh	(_NR12_REG + 0), a
;bitfalls.c:97: NR13_REG = 0x00;
	xor	a, a
	ldh	(_NR13_REG + 0), a
;bitfalls.c:98: NR14_REG = 0xC3;
	ld	a, #0xc3
	ldh	(_NR14_REG + 0), a
;bitfalls.c:99: }
	ret
;bitfalls.c:101: void play_button_sound() {
;	---------------------------------
; Function play_button_sound
; ---------------------------------
_play_button_sound::
;bitfalls.c:102: NR10_REG = 0x54;
	ld	a, #0x54
	ldh	(_NR10_REG + 0), a
;bitfalls.c:103: NR11_REG = 0x81;
	ld	a, #0x81
	ldh	(_NR11_REG + 0), a
;bitfalls.c:104: NR12_REG = 0x43;
	ld	a, #0x43
	ldh	(_NR12_REG + 0), a
;bitfalls.c:105: NR13_REG = 0x73;
	ld	a, #0x73
	ldh	(_NR13_REG + 0), a
;bitfalls.c:106: NR14_REG = 0x86;
	ld	a, #0x86
	ldh	(_NR14_REG + 0), a
;bitfalls.c:107: }
	ret
;bitfalls.c:109: void play_moving_sound() {
;	---------------------------------
; Function play_moving_sound
; ---------------------------------
_play_moving_sound::
;bitfalls.c:110: NR41_REG = 0x3F;
	ld	a, #0x3f
	ldh	(_NR41_REG + 0), a
;bitfalls.c:111: NR42_REG = 0x31;
	ld	a, #0x31
	ldh	(_NR42_REG + 0), a
;bitfalls.c:112: NR43_REG = 0x70;
	ld	a, #0x70
	ldh	(_NR43_REG + 0), a
;bitfalls.c:113: NR44_REG = 0x80;
	ld	a, #0x80
	ldh	(_NR44_REG + 0), a
;bitfalls.c:114: }
	ret
;bitfalls.c:116: void play_death_sound() {
;	---------------------------------
; Function play_death_sound
; ---------------------------------
_play_death_sound::
;bitfalls.c:117: NR41_REG = 0x20;
	ld	a, #0x20
	ldh	(_NR41_REG + 0), a
;bitfalls.c:118: NR42_REG = 0x68;
	ld	a, #0x68
	ldh	(_NR42_REG + 0), a
;bitfalls.c:119: NR43_REG = 0x6F;
	ld	a, #0x6f
	ldh	(_NR43_REG + 0), a
;bitfalls.c:120: NR44_REG = 0xC0;
	ld	a, #0xc0
	ldh	(_NR44_REG + 0), a
;bitfalls.c:121: }
	ret
;bitfalls.c:123: void setup_player() {
;	---------------------------------
; Function setup_player
; ---------------------------------
_setup_player::
;bitfalls.c:124: setup_game_character(&basket_player, 84, 136, 8, 8, 0, 0);
	xor	a, a
	rrca
	push	af
	xor	a, a
	ld	hl, #0x808
	push	hl
	ld	a, #0x88
	push	af
	inc	sp
	ld	a, #0x54
	ld	de, #_basket_player
	call	_setup_game_character
;bitfalls.c:125: }
	ret
;bitfalls.c:127: void setup_bananas(UINT8 number) {
;	---------------------------------
; Function setup_bananas
; ---------------------------------
_setup_bananas::
	dec	sp
	dec	sp
	ld	c, a
;bitfalls.c:129: for (i = 0; i < number; i++) {
	ld	b, #0x00
00103$:
	ld	a, b
	sub	a, c
	jr	NC, 00105$
;bitfalls.c:130: setup_game_character(&banana[i], 36 + i * 16, 32, 8, 8, i + 2, 3);
	ld	a, b
	add	a, #0x02
	ldhl	sp,	#0
	ld	(hl+), a
	ld	a, b
	swap	a
	and	a, #0xf0
	add	a, #0x24
	ld	(hl), a
	ld	e, b
	ld	d, #0x00
	ld	l, e
	ld	h, d
	add	hl, hl
	add	hl, hl
	add	hl, de
	ld	de, #_banana
	add	hl, de
	ld	e, l
	ld	d, h
	push	bc
	ld	a, #0x03
	push	af
	inc	sp
	ldhl	sp,	#3
	ld	a, (hl+)
	ld	b, a
	ld	c, #0x08
	push	bc
	ld	bc, #0x820
	push	bc
	ld	a, (hl)
	call	_setup_game_character
	pop	bc
;bitfalls.c:129: for (i = 0; i < number; i++) {
	inc	b
	jr	00103$
00105$:
;bitfalls.c:132: }
	inc	sp
	inc	sp
	ret
;bitfalls.c:134: void setup_game_character(gamecharacter* character, UINT8 x, UINT8 y, UINT8 width, UINT8 height, UINT8 spriteid, UINT8 tile) {
;	---------------------------------
; Function setup_game_character
; ---------------------------------
_setup_game_character::
	dec	sp
	ldhl	sp,	#0
	ld	(hl), a
;bitfalls.c:135: character->x = x;
	ld	c, e
	ld	b, d
	inc	bc
	ld	a, (hl)
	ld	(bc), a
;bitfalls.c:136: character->y = y;
	ld	c, e
	ld	b, d
	inc	bc
	inc	bc
	ldhl	sp,	#3
;bitfalls.c:137: character->width = width;
	ld	a, (hl+)
	ld	(bc), a
	ld	c, e
	ld	b, d
	inc	bc
	inc	bc
	inc	bc
	ld	a, (hl)
	ld	(bc), a
;bitfalls.c:138: character->height = height;
	ld	hl, #0x0004
	add	hl, de
	ld	c, l
	ld	b, h
	ldhl	sp,	#5
;bitfalls.c:140: set_sprite_tile(spriteid, tile);
	ld	a, (hl+)
	inc	hl
	ld	(bc), a
	ld	a, (hl-)
	ld	b, a
	ld	c, (hl)
;../gbdk/include/gb/gb.h:1875: shadow_OAM[nb].tile=tile;
	ld	l, c
;	spillPairReg hl
;	spillPairReg hl
	xor	a, a
	ld	h, a
	add	hl, hl
	add	hl, hl
	push	de
	ld	de, #_shadow_OAM
	add	hl, de
	inc	hl
	inc	hl
	pop	de
	ld	(hl), b
;bitfalls.c:141: character->spriteid = spriteid;
	ld	a, c
	ld	(de), a
;bitfalls.c:143: move_character(character, x, y);
	ldhl	sp,	#3
	ld	a, (hl)
	push	af
	inc	sp
	ldhl	sp,	#1
	ld	a, (hl)
	call	_move_character
;bitfalls.c:144: }
	inc	sp
	pop	hl
	add	sp, #5
	jp	(hl)
;bitfalls.c:146: UBYTE is_player_within_bounds(gamecharacter* player) {
;	---------------------------------
; Function is_player_within_bounds
; ---------------------------------
_is_player_within_bounds::
;bitfalls.c:147: return player->x > 152 || player->x < 16 ? 1 : 0;
	inc	de
	ld	a, (de)
	ld	c, a
	ld	a, #0x98
	sub	a, c
	jr	C, 00106$
	ld	a, c
	sub	a, #0x10
	jr	NC, 00103$
00106$:
	ld	a, #0x01
	ret
00103$:
	xor	a, a
;bitfalls.c:148: }
	ret
;bitfalls.c:150: UBYTE has_collision_happened(gamecharacter* first, gamecharacter* second) {
;	---------------------------------
; Function has_collision_happened
; ---------------------------------
_has_collision_happened::
	add	sp, #-16
	ldhl	sp,	#14
	ld	a, e
	ld	(hl+), a
;bitfalls.c:151: if ((first->x >= second->x - second->width && first->x  <= second->x &&
	ld	a, d
	ld	(hl-), a
	ld	a, (hl+)
	ld	e, a
	ld	d, (hl)
	inc	de
	ld	a, (de)
	ldhl	sp,	#0
	ld	(hl+), a
	ld	e, c
	ld	d, b
	inc	de
	ld	a, (de)
	ld	(hl), a
	ld	a, (hl+)
	ld	(hl+), a
	ld	(hl), #0x00
	ld	e, c
	ld	d, b
	inc	de
	inc	de
	inc	de
	ld	a, (de)
	ldhl	sp,	#10
	ld	(hl+), a
	ld	(hl), #0x00
	ldhl	sp,#2
	ld	a, (hl+)
	ld	e, a
	ld	d, (hl)
	ldhl	sp,	#10
	ld	a,	(hl+)
	ld	h, (hl)
	ld	l, a
	ld	a, e
	sub	a, l
	ld	e, a
	ld	a, d
	sbc	a, h
	ldhl	sp,	#13
	ld	(hl-), a
	ld	(hl), e
	ldhl	sp,	#0
	ld	a, (hl)
	ldhl	sp,	#4
	ld	(hl+), a
	ld	(hl), #0x00
;bitfalls.c:152: first->y <= second->y + second->height && first->y >= second->y) ||
	ldhl	sp,#14
	ld	a, (hl+)
	ld	e, a
	ld	d, (hl)
	ld	hl, #0x0002
	add	hl, de
	push	hl
	ld	a, l
	ldhl	sp,	#8
	ld	(hl), a
	pop	hl
	ld	a, h
	ldhl	sp,	#7
	ld	(hl), a
	ld	hl, #0x0002
	add	hl, bc
	push	hl
	ld	a, l
	ldhl	sp,	#10
	ld	(hl), a
	pop	hl
	ld	a, h
	ldhl	sp,	#9
	ld	(hl), a
;bitfalls.c:151: if ((first->x >= second->x - second->width && first->x  <= second->x &&
	ldhl	sp,	#4
	ld	e, l
	ld	d, h
	ldhl	sp,	#12
	ld	a, (de)
	inc	de
	sub	a, (hl)
	inc	hl
	ld	a, (de)
	sbc	a, (hl)
	ld	a, (de)
	ld	d, a
	bit	7, (hl)
	jr	Z, 00154$
	bit	7, d
	jr	NZ, 00155$
	cp	a, a
	jr	00155$
00154$:
	bit	7, d
	jr	Z, 00155$
	scf
00155$:
	jr	C, 00109$
	ldhl	sp,	#1
	ld	a, (hl-)
	sub	a, (hl)
	jr	C, 00109$
;bitfalls.c:152: first->y <= second->y + second->height && first->y >= second->y) ||
	ldhl	sp,#6
	ld	a, (hl+)
	ld	e, a
	ld	d, (hl)
	ld	a, (de)
	ldhl	sp,	#10
	ld	(hl-), a
	dec	hl
	ld	a, (hl+)
	ld	e, a
	ld	a, (hl+)
	inc	hl
	ld	d, a
	ld	a, (de)
	ld	(hl), a
	ld	e, (hl)
	ld	d, #0x00
	ld	hl, #0x0004
	add	hl, bc
	ld	l, (hl)
;	spillPairReg hl
	ld	h, #0x00
;	spillPairReg hl
;	spillPairReg hl
	add	hl, de
	ld	c, l
	ld	b, h
	ldhl	sp,	#10
	ld	a, (hl+)
	inc	hl
	ld	(hl+), a
	xor	a, a
	ld	(hl-), a
	ld	a, c
	sub	a, (hl)
	inc	hl
	ld	a, b
	sbc	a, (hl)
	ld	a, b
	ld	d, a
	bit	7, (hl)
	jr	Z, 00156$
	bit	7, d
	jr	NZ, 00157$
	cp	a, a
	jr	00157$
00156$:
	bit	7, d
	jr	Z, 00157$
	scf
00157$:
	jr	C, 00109$
	ldhl	sp,	#10
	ld	a, (hl+)
	sub	a, (hl)
	jp	NC, 00101$
00109$:
;bitfalls.c:153: (second->x >= first->x - first->width && second->x  <= first->x &&
	ldhl	sp,	#14
	ld	a, (hl+)
	ld	c, a
	ld	b, (hl)
	inc	bc
	inc	bc
	inc	bc
	ld	a, (bc)
	ld	c, a
	ld	b, #0x00
	ldhl	sp,#4
	ld	a, (hl+)
	ld	e, a
	ld	d, (hl)
	ld	a, e
	sub	a, c
	ld	e, a
	ld	a, d
	sbc	a, b
	ld	b, a
	ld	c, e
	ldhl	sp,	#2
	ld	a, (hl+)
	sub	a, c
	ld	a, (hl)
	sbc	a, b
	ld	d, (hl)
	ld	a, b
	bit	7,a
	jr	Z, 00158$
	bit	7, d
	jr	NZ, 00159$
	cp	a, a
	jr	00159$
00158$:
	bit	7, d
	jr	Z, 00159$
	scf
00159$:
	jr	C, 00102$
	ldhl	sp,	#0
	ld	a, (hl+)
	sub	a, (hl)
	jr	C, 00102$
;bitfalls.c:154: second->y <= first->y + first->height && second->y >= first->y)) {
	ldhl	sp,#8
	ld	a, (hl+)
	ld	e, a
	ld	d, (hl)
	ld	a, (de)
	ldhl	sp,	#13
	ld	(hl), a
	ldhl	sp,#6
	ld	a, (hl+)
	ld	e, a
	ld	d, (hl)
	ld	a, (de)
	ldhl	sp,	#12
	ld	(hl), a
	ld	c, (hl)
	ld	b, #0x00
	ldhl	sp,#14
	ld	a, (hl+)
	ld	e, a
	ld	d, (hl)
	ld	hl, #0x0004
	add	hl, de
	ld	e, l
	ld	d, h
	ld	a, (de)
	ld	l, a
;	spillPairReg hl
;	spillPairReg hl
	ld	h, #0x00
;	spillPairReg hl
;	spillPairReg hl
	add	hl, bc
	ld	c, l
	ld	b, h
	ldhl	sp,	#13
	ld	a, (hl)
	ldhl	sp,	#10
	ld	(hl+), a
	xor	a, a
	ld	(hl-), a
	ld	a, c
	sub	a, (hl)
	inc	hl
	ld	a, b
	sbc	a, (hl)
	ld	a, b
	ld	d, a
	bit	7, (hl)
	jr	Z, 00160$
	bit	7, d
	jr	NZ, 00161$
	cp	a, a
	jr	00161$
00160$:
	bit	7, d
	jr	Z, 00161$
	scf
00161$:
	jr	C, 00102$
	ldhl	sp,	#13
	ld	a, (hl-)
	sub	a, (hl)
	jr	C, 00102$
00101$:
;bitfalls.c:155: return 0;
	xor	a, a
	jr	00110$
00102$:
;bitfalls.c:157: return 1;
	ld	a, #0x01
00110$:
;bitfalls.c:158: }
	add	sp, #16
	ret
;bitfalls.c:160: void move_character(gamecharacter* character, UINT8 x, UINT8 y) {
;	---------------------------------
; Function move_character
; ---------------------------------
_move_character::
	ld	c, a
;bitfalls.c:161: move_sprite(character->spriteid, x, y);
	ldhl	sp,	#2
	ld	b, (hl)
	ld	a, (de)
;../gbdk/include/gb/gb.h:1961: OAM_item_t * itm = &shadow_OAM[nb];
	ld	l, a
;	spillPairReg hl
;	spillPairReg hl
	ld	h, #0x00
;	spillPairReg hl
;	spillPairReg hl
	add	hl, hl
	add	hl, hl
	ld	de, #_shadow_OAM
	add	hl, de
;../gbdk/include/gb/gb.h:1962: itm->y=y, itm->x=x;
	ld	(hl), b
	inc	hl
	ld	(hl), c
;bitfalls.c:161: move_sprite(character->spriteid, x, y);
;bitfalls.c:162: }
	pop	hl
	inc	sp
	jp	(hl)
;bitfalls.c:164: void game_over(UBYTE win) {
;	---------------------------------
; Function game_over
; ---------------------------------
_game_over::
	ld	c, a
;bitfalls.c:165: SHOW_BKG;
	ldh	a, (_LCDC_REG + 0)
	or	a, #0x01
	ldh	(_LCDC_REG + 0), a
;bitfalls.c:166: HIDE_SPRITES;
	ldh	a, (_LCDC_REG + 0)
	and	a, #0xfd
	ldh	(_LCDC_REG + 0), a
;bitfalls.c:167: printf(" \n \n \n \n === Game  Over ===");
	push	bc
	ld	de, #___str_0
	push	de
	call	_printf
	pop	hl
	pop	bc
;bitfalls.c:168: if (win == 0) {
	ld	a, c
	or	a, a
	jr	NZ, 00102$
;bitfalls.c:169: printf("\n \n - Player Won");
	ld	de, #___str_1
	push	de
	call	_printf
	pop	hl
	ret
00102$:
;bitfalls.c:171: printf("\n \n - Player Lost");
	ld	de, #___str_2
	push	de
	call	_printf
	pop	hl
;bitfalls.c:173: }
	ret
___str_0:
	.ascii " "
	.db 0x0a
	.ascii " "
	.db 0x0a
	.ascii " "
	.db 0x0a
	.ascii " "
	.db 0x0a
	.ascii " === Game  Over ==="
	.db 0x00
___str_1:
	.db 0x0a
	.ascii " "
	.db 0x0a
	.ascii " - Player Won"
	.db 0x00
___str_2:
	.db 0x0a
	.ascii " "
	.db 0x0a
	.ascii " - Player Lost"
	.db 0x00
	.area _CODE
	.area _INITIALIZER
__xinit__ShipSprite:
	.db #0x18	; 24
	.db #0x18	; 24
	.db #0x18	; 24
	.db #0x18	; 24
	.db #0x5a	; 90	'Z'
	.db #0x5a	; 90	'Z'
	.db #0x81	; 129
	.db #0xdb	; 219
	.db #0x42	; 66	'B'
	.db #0xbd	; 189
	.db #0x7e	; 126
	.db #0x81	; 129
	.db #0x7e	; 126
	.db #0x42	; 66	'B'
	.db #0x24	; 36
	.db #0x3c	; 60
__xinit__AlienSprite:
	.db #0x42	; 66	'B'
	.db #0x42	; 66	'B'
	.db #0x24	; 36
	.db #0x3c	; 60
	.db #0x7e	; 126
	.db #0x42	; 66	'B'
	.db #0x7e	; 126
	.db #0xbd	; 189
	.db #0x42	; 66	'B'
	.db #0xbd	; 189
	.db #0x81	; 129
	.db #0xff	; 255
	.db #0x42	; 66	'B'
	.db #0x66	; 102	'f'
	.db #0x00	; 0
	.db #0x42	; 66	'B'
	.db #0x42	; 66	'B'
	.db #0x42	; 66	'B'
	.db #0x24	; 36
	.db #0x3c	; 60
	.db #0x7e	; 126
	.db #0x42	; 66	'B'
	.db #0x7e	; 126
	.db #0xbd	; 189
	.db #0x42	; 66	'B'
	.db #0xbd	; 189
	.db #0x81	; 129
	.db #0xff	; 255
	.db #0x42	; 66	'B'
	.db #0x66	; 102	'f'
	.db #0x00	; 0
	.db #0x24	; 36
__xinit__ProjectileSprite:
	.db #0x00	; 0
	.db #0x00	; 0
	.db #0x00	; 0
	.db #0x00	; 0
	.db #0x00	; 0
	.db #0x18	; 24
	.db #0x00	; 0
	.db #0x18	; 24
	.db #0x00	; 0
	.db #0x18	; 24
	.db #0x00	; 0
	.db #0x18	; 24
	.db #0x00	; 0
	.db #0x00	; 0
	.db #0x00	; 0
	.db #0x00	; 0
	.area _CABS (ABS)
